(lp1
cnumpy.core.multiarray
scalar
p2
(cnumpy
dtype
p3
(S'f4'
I0
I1
tRp4
(I3
S'<'
NNNI-1
I-1
I0
tbS'\xcd\xcct?'
tRp5
ag2
(g4
S'\xcd\xccn?'
tRp6
ag2
(g4
S'R\xb8s?'
tRp7
ag2
(g4
S'\xe1zn?'
tRp8
ag2
(g4
S'\xaeGo?'
tRp9
ag2
(g4
S'\x8f\xc2h?'
tRp10
ag2
(g4
S'\x85\xebn?'
tRp11
ag2
(g4
S'\xe1zp?'
tRp12
ag2
(g4
S'q=p?'
tRp13
ag2
(g4
S'ffg?'
tRp14
a.